_ZNSt10filesystem7__cxx114pathD1Ev
_ZNSt10filesystem7__cxx114pathD2Ev
_ZNSt16_Sp_counted_baseILN9__gnu_cxx12_Lock_policyE2EE10_M_releaseEv
_ZNSt6vectorINSt7__cxx1112basic_stringIcSt11char_traitsIcESaIcEEESaIS5_EE17_M_realloc_insertIJRKS5_EEEvN9__gnu_cxx17__normal_iteratorIPS5_S7_EEDpOT_
_ZNSt6vectorINSt7__cxx1112basic_stringIcSt11char_traitsIcESaIcEEESaIS5_EED1Ev
_ZNSt6vectorINSt7__cxx1112basic_stringIcSt11char_traitsIcESaIcEEESaIS5_EED2Ev
_ZNSt6vectorIP15rad_task_handleSaIS1_EE17_M_realloc_insertIJRKS1_EEEvN9__gnu_cxx17__normal_iteratorIPS1_S3_EEDpOT_
_ZNSt6vectorIPKcSaIS1_EE17_M_realloc_insertIJS1_EEEvN9__gnu_cxx17__normal_iteratorIPS1_S3_EEDpOT_
_ZNSt7__cxx1112basic_stringIcSt11char_traitsIcESaIcEE10_M_replaceEmmPKcm
_ZNSt7__cxx1112basic_stringIcSt11char_traitsIcESaIcEE9_M_mutateEmmPKcm
_ZNSt8_Rb_treeINSt7__cxx1112basic_stringIcSt11char_traitsIcESaIcEEESt4pairIKS5_17rad_device_recordESt10_Select1stIS9_ESt4lessIS5_ESaIS9_EE11equal_rangeERS7_
_ZNSt8_Rb_treeINSt7__cxx1112basic_stringIcSt11char_traitsIcESaIcEEESt4pairIKS5_17rad_device_recordESt10_Select1stIS9_ESt4lessIS5_ESaIS9_EE24_M_get_insert_unique_posERS7_
_ZNSt8_Rb_treeINSt7__cxx1112basic_stringIcSt11char_traitsIcESaIcEEESt4pairIKS5_17rad_device_recordESt10_Select1stIS9_ESt4lessIS5_ESaIS9_EE29_M_get_insert_hint_unique_posESt23_Rb_tree_const_iteratorIS9_ERS7_
_ZNSt8_Rb_treeINSt7__cxx1112basic_stringIcSt11char_traitsIcESaIcEEESt4pairIKS5_NSt10filesystem7__cxx114pathEESt10_Select1stISB_ESt4lessIS5_ESaISB_EE11equal_rangeERS7_
_ZNSt8_Rb_treeINSt7__cxx1112basic_stringIcSt11char_traitsIcESaIcEEESt4pairIKS5_NSt10filesystem7__cxx114pathEESt10_Select1stISB_ESt4lessIS5_ESaISB_EE24_M_get_insert_unique_posERS7_
_ZNSt8_Rb_treeINSt7__cxx1112basic_stringIcSt11char_traitsIcESaIcEEESt4pairIKS5_NSt10filesystem7__cxx114pathEESt10_Select1stISB_ESt4lessIS5_ESaISB_EE29_M_get_insert_hint_unique_posESt23_Rb_tree_const_iteratorISB_ERS7_
_ZNSt8_Rb_treeINSt7__cxx1112basic_stringIcSt11char_traitsIcESaIcEEESt4pairIKS5_S6_IS5_S6_IPF10rad_statusiPPKcPFvSA_PvESC_SC_ESC_EEESt10_Select1stISJ_ESt4lessIS5_ESaISJ_EE24_M_get_insert_unique_posERS7_
_ZNSt8_Rb_treeINSt7__cxx1112basic_stringIcSt11char_traitsIcESaIcEEESt4pairIKS5_S6_IS5_S6_IPF10rad_statusiPPKcPFvSA_PvESC_SC_ESC_EEESt10_Select1stISJ_ESt4lessIS5_ESaISJ_EE29_M_get_insert_hint_unique_posESt23_Rb_tree_const_iteratorISJ_ERS7_
_ZZNSt8__detail18__to_chars_10_implIjEEvPcjT_E8__digits
_ZZNSt8__detail18__to_chars_10_implImEEvPcjT_E8__digits
radboot_add_arg
radboot_add_memory_region
radboot_prepare_bcm283x
radboot_prepare_circle
radboot_prepare_default
radboot_prepare_pi_handoff
radboot_prepare_rp235x
radboot_validate_handoff
rad_audio_configure
rad_block_device_register
rad_block_info
rad_block_open
rad_block_read
rad_device_close
rad_device_ioctl
rad_device_list
rad_device_open
rad_device_read
rad_device_register
rad_device_unregister
rad_device_write
rad_event_create
rad_event_destroy
rad_event_reset
rad_event_signal
rad_event_wait
rad_framebuffer_blank
rad_framebuffer_clear
rad_framebuffer_close
rad_framebuffer_draw_text
rad_framebuffer_flush
rad_framebuffer_get_display_info
rad_framebuffer_get_info
rad_framebuffer_get_vsync_counter
rad_framebuffer_list
rad_framebuffer_list_ex
rad_framebuffer_open
rad_framebuffer_open_primary
rad_framebuffer_present
rad_framebuffer_register
rad_framebuffer_register_ex
rad_framebuffer_set_mode
rad_framebuffer_set_primary
rad_framebuffer_unregister
rad_fd_close
rad_fd_dup
rad_fd_dup2
rad_fd_fstat
rad_fd_ioctl
rad_fd_lseek
rad_fd_open
rad_fd_read
rad_fd_stat
rad_fd_write
rad_input_device_register
rad_input_device_unregister
rad_input_open
rad_input_read_event
rad_i2c_transfer_device
rad_i2c_bind_tree
rad_i2c_bus_close
rad_i2c_bus_open
rad_i2c_controller_register
rad_i2c_controller_unregister
rad_i2c_transfer
rad_core_info_get
rad_kernel_backend_name
rad_kernel_init
rad_kernel_is_initialized
rad_kernel_shutdown
rad_kernel_version_string
rad_memory_alloc
rad_memory_free
rad_memory_get_stats
rad_module_list
rad_module_register
rad_module_unregister
rad_mutex_create
rad_mutex_destroy
rad_mutex_lock
rad_mutex_unlock
rad_net_device_register
rad_net_link_info
rad_net_open
rad_net_poll
rad_net_receive
rad_net_send
rad_sleep_ms
rad_sleep_us
rad_socket_accept
rad_socket_bind
rad_socket_connect
rad_socket_create
rad_socket_get_info
rad_socket_getsockopt
rad_socket_listen
rad_socket_recv
rad_socket_recvfrom
rad_socket_send
rad_socket_sendto
rad_socket_setsockopt
rad_socket_shutdown
rad_spi_transfer_device
rad_program_list
rad_program_load
rad_program_spawn
rad_program_unload
rad_process_current_pid
rad_process_execve
rad_process_exit
rad_process_fork
rad_process_list
rad_process_parent_pid
rad_process_waitpid
rad_syscall_dispatch
rad_overlay_apply_boot
rad_overlay_list
rad_overlay_load_file
rad_overlay_load_memory
rad_tree_find
rad_tree_get_property_bool
rad_tree_get_property_string
rad_tree_get_property_u32
rad_tree_list
rad_task_create
rad_task_create_config
rad_task_current_core
rad_task_current_id
rad_task_detach
rad_task_join
rad_task_list
rad_task_sleep_ms
rad_task_sleep_us
rad_task_yield
rad_pty_close
rad_pty_open_pair
rad_pty_read_master
rad_pty_read_slave
rad_pty_resize
rad_pty_slave_name
rad_pty_write_master
rad_pty_write_slave
rad_terminal_attach_device
rad_terminal_command_count
rad_terminal_execute
rad_terminal_poll_attached
rad_terminal_poll_tty
rad_terminal_register_command
rad_scheduler_current_core
rad_scheduler_info_get
rad_scheduler_online_core_mask
rad_scheduler_set_preemption_enabled
rad_scheduler_yield_from_irq
rad_service_configure_tree
rad_service_list
rad_service_poll_all
rad_service_register
rad_service_start
rad_service_stop
rad_service_unregister
rad_shm_get_info
rad_shm_get_page
rad_shm_kernel_pointer
rad_shm_open
rad_shm_set_page
rad_shm_unlink
rad_time_micros
rad_time_millis
rad_tty_close
rad_tty_get_mode
rad_tty_get_window_size
rad_tty_open
rad_tty_push_input
rad_tty_read
rad_tty_set_mode
rad_tty_set_output_callback
rad_tty_set_window_size
rad_tty_write
rad_vfs_close
rad_vfs_chdir
rad_vfs_closedir
rad_vfs_getcwd
rad_vfs_list
rad_vfs_mkdir
rad_vfs_mount_host
rad_vfs_mount_provider
rad_vfs_opendir
rad_vfs_open
rad_vfs_read
rad_vfs_readdir
rad_vfs_remove
rad_vfs_rename
rad_vfs_rmdir
rad_vfs_seek
rad_vfs_stat
rad_vfs_tell
rad_vfs_unmount
rad_vfs_write
